; Function Attrs: nounwind uwtable
define void @Cnf_CollectLeaves_rec(ptr noundef %0, ptr noundef %1, ptr noundef %2, i32 noundef %3) local_unnamed_addr #0 {
  %5 = icmp eq i32 %3, 0
  br label %tailrecurse

tailrecurse:                                      ; preds = %tailrecurse.backedge, %4
  %.tr32 = phi ptr [ %1, %4 ], [ %.tr32.be, %tailrecurse.backedge ]
  %.tr34 = phi i1 [ %5, %4 ], [ %.tr34.be, %tailrecurse.backedge ]
  %.not = icmp eq ptr %0, %.tr32
  br i1 %.not, label %59, label %6

6:                                                ; preds = %tailrecurse
  %7 = getelementptr inbounds nuw i8, ptr %.tr32, i64 24
  %8 = load i64, ptr %7, align 8
  %9 = and i64 %8, 16
  %.not21 = icmp eq i64 %9, 0
  br i1 %.not21, label %10, label %14

10:                                               ; preds = %6
  br i1 %.tr34, label %62, label %11

11:                                               ; preds = %10
  %12 = ptrtoint ptr %.tr32 to i64
  %13 = and i64 %12, 1
  %.not23 = icmp eq i64 %13, 0
  br i1 %.not23, label %.thread30, label %.thread

14:                                               ; preds = %6
  br i1 %.tr34, label %15, label %.thread

15:                                               ; preds = %14
  %16 = ptrtoint ptr %.tr32 to i64
  %17 = and i64 %16, -2
  %18 = inttoptr i64 %17 to ptr
  br label %.thread

.thread:                                          ; preds = %11, %14, %15
  %19 = phi ptr [ %18, %15 ], [ %.tr32, %14 ], [ %.tr32, %11 ]
  %20 = getelementptr inbounds nuw i8, ptr %2, i64 4
  %21 = load i32, ptr %20, align 4
  %22 = icmp sgt i32 %21, 0
  br i1 %22, label %.lr.ph.i, label %._crit_edge.i

.lr.ph.i:                                         ; preds = %.thread
  %23 = getelementptr inbounds nuw i8, ptr %2, i64 8
  %24 = load ptr, ptr %23, align 8
  %wide.trip.count.i = zext nneg i32 %21 to i64
  br label %26

25:                                               ; preds = %26
  %indvars.iv.next.i = add nuw nsw i64 %indvars.iv.i, 1
  %exitcond.not.i = icmp eq i64 %indvars.iv.next.i, %wide.trip.count.i
  br i1 %exitcond.not.i, label %._crit_edge.i, label %26, !llvm.loop !4

26:                                               ; preds = %25, %.lr.ph.i
  %indvars.iv.i = phi i64 [ 0, %.lr.ph.i ], [ %indvars.iv.next.i, %25 ]
  %27 = getelementptr inbounds nuw ptr, ptr %24, i64 %indvars.iv.i
  %28 = load ptr, ptr %27, align 8
  %29 = icmp eq ptr %28, %19
  br i1 %29, label %Vec_PtrPushUnique.exit, label %25

._crit_edge.i:                                    ; preds = %25, %.thread
  %30 = load i32, ptr %2, align 8
  %31 = icmp eq i32 %21, %30
  br i1 %31, label %32, label %.Vec_PtrGrow.exit11_crit_edge.i.i

.Vec_PtrGrow.exit11_crit_edge.i.i:                ; preds = %._crit_edge.i
  %.phi.trans.insert.i.i = getelementptr inbounds nuw i8, ptr %2, i64 8
  %.pre.i.i = load ptr, ptr %.phi.trans.insert.i.i, align 8
  br label %Vec_PtrPush.exit.i

32:                                               ; preds = %._crit_edge.i
  %33 = icmp slt i32 %21, 16
  br i1 %33, label %34, label %42

34:                                               ; preds = %32
  %35 = getelementptr inbounds nuw i8, ptr %2, i64 8
  %36 = load ptr, ptr %35, align 8
  %.not9.i.i.i = icmp eq ptr %36, null
  br i1 %.not9.i.i.i, label %39, label %37

37:                                               ; preds = %34
  %38 = tail call dereferenceable_or_null(128) ptr @realloc(ptr noundef nonnull %36, i64 noundef 128) #12
  br label %Vec_PtrGrow.exit.i.i

39:                                               ; preds = %34
  %40 = tail call noalias dereferenceable_or_null(128) ptr @malloc(i64 noundef 128) #13
  br label %Vec_PtrGrow.exit.i.i

Vec_PtrGrow.exit.i.i:                             ; preds = %39, %37
  %41 = phi ptr [ %38, %37 ], [ %40, %39 ]
  store ptr %41, ptr %35, align 8
  store i32 16, ptr %2, align 8
  br label %Vec_PtrPush.exit.i

42:                                               ; preds = %32
  %43 = shl nuw nsw i32 %21, 1
  %44 = getelementptr inbounds nuw i8, ptr %2, i64 8
  %45 = load ptr, ptr %44, align 8
  %.not9.i10.i.i = icmp eq ptr %45, null
  %46 = zext nneg i32 %43 to i64
  %47 = shl nuw nsw i64 %46, 3
  br i1 %.not9.i10.i.i, label %50, label %48

48:                                               ; preds = %42
  %49 = tail call ptr @realloc(ptr noundef nonnull %45, i64 noundef %47) #12
  br label %52

50:                                               ; preds = %42
  %51 = tail call noalias ptr @malloc(i64 noundef %47) #13
  br label %52

52:                                               ; preds = %50, %48
  %53 = phi ptr [ %49, %48 ], [ %51, %50 ]
  store ptr %53, ptr %44, align 8
  store i32 %43, ptr %2, align 8
  br label %Vec_PtrPush.exit.i

Vec_PtrPush.exit.i:                               ; preds = %52, %Vec_PtrGrow.exit.i.i, %.Vec_PtrGrow.exit11_crit_edge.i.i
  %54 = phi ptr [ %.pre.i.i, %.Vec_PtrGrow.exit11_crit_edge.i.i ], [ %53, %52 ], [ %41, %Vec_PtrGrow.exit.i.i ]
  %55 = load i32, ptr %20, align 4
  %56 = add nsw i32 %55, 1
  store i32 %56, ptr %20, align 4
  %57 = sext i32 %55 to i64
  %58 = getelementptr inbounds ptr, ptr %54, i64 %57
  store ptr %19, ptr %58, align 8
  br label %Vec_PtrPushUnique.exit

59:                                               ; preds = %tailrecurse
  br i1 %.tr34, label %62, label %.thread30

.thread30:                                        ; preds = %11, %59
  %60 = getelementptr i8, ptr %.tr32, i64 8
  %.val = load ptr, ptr %60, align 8
  tail call void @Cnf_CollectLeaves_rec(ptr noundef %0, ptr noundef %.val, ptr noundef %2, i32 noundef 1)
  %61 = getelementptr i8, ptr %.tr32, i64 16
  %.val26 = load ptr, ptr %61, align 8
  br label %tailrecurse.backedge

tailrecurse.backedge:                             ; preds = %.thread30, %62
  %.tr32.be = phi ptr [ %.val26, %.thread30 ], [ %70, %62 ]
  %.tr34.be = phi i1 [ false, %.thread30 ], [ true, %62 ]
  br label %tailrecurse

62:                                               ; preds = %10, %59
  %63 = getelementptr i8, ptr %.tr32, i64 8
  %.val27 = load ptr, ptr %63, align 8
  %64 = ptrtoint ptr %.val27 to i64
  %65 = and i64 %64, -2
  %66 = inttoptr i64 %65 to ptr
  tail call void @Cnf_CollectLeaves_rec(ptr noundef %0, ptr noundef %66, ptr noundef %2, i32 noundef 0)
  %67 = getelementptr i8, ptr %.tr32, i64 16
  %.val28 = load ptr, ptr %67, align 8
  %68 = ptrtoint ptr %.val28 to i64
  %69 = and i64 %68, -2
  %70 = inttoptr i64 %69 to ptr
  br label %tailrecurse.backedge

Vec_PtrPushUnique.exit:                           ; preds = %26, %Vec_PtrPush.exit.i
  ret void
}